target datalayout = "e-m:e-p270:32:32-p271:32:32-p272:64:64-i64:64-i128:128-f80:128-n8:16:32:64-S128"
target triple = "x86_64-pc-linux-gnu"

%struct.rb_data_type_struct = type { ptr, %struct.anon.2, ptr, ptr, i64 }
%struct.anon.2 = type { ptr, ptr, ptr, ptr, [1 x ptr] }
%struct.zstream = type { i64, i64, i64, i64, %struct.z_stream_s, ptr }
%struct.z_stream_s = type { ptr, i32, i64, ptr, i32, i64, ptr, ptr, ptr, ptr, ptr, i32, i64, i64 }

@cZError = internal global i64 0, align 8
@zstream_data_type = internal constant %struct.rb_data_type_struct { ptr @.str.147, %struct.anon.2 { ptr @zstream_mark, ptr @zstream_free, ptr @zstream_memsize, ptr null, [1 x ptr] zeroinitializer }, ptr null, ptr null, i64 1 }, align 8
@.str.150 = private unnamed_addr constant [20 x i8] c"stream is not ready\00", align 1

; Function Attrs: nounwind sspstrong uwtable
define internal ptr @get_zstream(i64 noundef %0) #0 {
  %2 = alloca i64, align 8
  %3 = alloca ptr, align 8
  store i64 %0, ptr %2, align 8, !tbaa !6
  call void @llvm.lifetime.start.p0(i64 8, ptr %3) #23
  %4 = load i64, ptr %2, align 8, !tbaa !6
  %5 = call ptr @rb_check_typeddata(i64 noundef %4, ptr noundef @zstream_data_type)
  store ptr %5, ptr %3, align 8, !tbaa !21
  %6 = load ptr, ptr %3, align 8, !tbaa !21
  %7 = getelementptr inbounds nuw %struct.zstream, ptr %6, i32 0, i32 0
  %8 = load i64, ptr %7, align 8, !tbaa !33
  %9 = and i64 %8, 1
  %10 = icmp ne i64 %9, 0
  br i1 %10, label %13, label %11

11:                                               ; preds = %1
  %12 = load i64, ptr @cZError, align 8, !tbaa !6
  call void (i64, ptr, ...) @rb_raise(i64 noundef %12, ptr noundef @.str.150) #26
  unreachable

13:                                               ; preds = %1
  %14 = load ptr, ptr %3, align 8, !tbaa !21
  call void @llvm.lifetime.end.p0(i64 8, ptr %3) #23
  ret ptr %14
}

; Function Attrs: nounwind sspstrong uwtable
define internal i64 @rb_zstream_adler(i64 noundef %0) #0 {
  %2 = alloca i64, align 8
  store i64 %0, ptr %2, align 8, !tbaa !6
  %3 = load i64, ptr %2, align 8, !tbaa !6
  %4 = call ptr @get_zstream(i64 noundef %3)
  %5 = getelementptr inbounds nuw %struct.zstream, ptr %4, i32 0, i32 4
  %6 = getelementptr inbounds nuw %struct.z_stream_s, ptr %5, i32 0, i32 12
  %7 = load i64, ptr %6, align 8, !tbaa !32
  %8 = call i64 @rb_uint2inum(i64 noundef %7)
  ret i64 %8
}