; Function Attrs: nounwind sspstrong uwtable
define internal i64 @rb_zstream_adler(i64 noundef %0) #0 {
  %2 = tail call ptr @rb_check_typeddata(i64 noundef %0, ptr noundef nonnull @zstream_data_type) #18
  %3 = load i64, ptr %2, align 8, !tbaa !42
  %4 = and i64 %3, 1
  %.not.i = icmp eq i64 %4, 0
  br i1 %.not.i, label %5, label %get_zstream.exit

5:                                                ; preds = %1
  %6 = load i64, ptr @cZError, align 8, !tbaa !6
  tail call void (i64, ptr, ...) @rb_raise(i64 noundef %6, ptr noundef nonnull @.str.150) #19
  unreachable

get_zstream.exit:                                 ; preds = %1
  %7 = getelementptr inbounds nuw i8, ptr %2, i64 128
  %8 = load i64, ptr %7, align 8, !tbaa !55
  %9 = tail call i64 @rb_uint2inum(i64 noundef %8) #18
  ret i64 %9
}